(dp0
(S'3233 Foothill Blvd., La Crescenta-Montrose, CA 91214'
p1
S'3233 Foothill Blvd., La Crescenta-Montrose, CA 91214'
p2
tp3
V1
p4
s(S'2959 Canada Blvd., Glendale, CA 91208'
p5
S'3233 Foothill Blvd., La Crescenta-Montrose, CA 91214'
p6
tp7
V7
p8
s(S'12131 Via Santa Maria, Sylmar, CA 91342'
p9
S'1919 Verdugo Blvd, La Canada Flintridge, CA 91011'
p10
tp11
V22
p12
s(g10
S'1919 Verdugo Blvd, La Canada Flintridge, CA 91011'
p13
tp14
V1
p15
s(S'12131 Via Santa Maria, Sylmar, CA 91342'
p16
S'12131 Via Santa Maria, Sylmar, CA 91342'
p17
tp18
g4
s(S'1919 Verdugo Blvd, La Caada Flintridge, CA 91011'
p19
S'889 Americana Way suite 330, Glendale, CA 91210'
p20
tp21
V11
p22
s(g1
g20
tp23
V15
p24
s(g16
g1
tp25
V18
p26
s(S'1919 Verdugo Blvd, La Canada Flintridge, CA 91011'
p27
g6
tp28
g8
s(S'2039 Verdugo Blvd, La Canada Flintridge, CA 91020'
p29
g20
tp30
V11
p31
s(g16
S'2959 Canada Blvd., Glendale, CA 91208'
p32
tp33
V23
p34
s(g29
g1
tp35
V7
p36
s(g29
S'3121 Santa Carlotta St, La Crescenta, CA 91020'
p37
tp38
V9
p39
s(g32
g20
tp40
V14
p41
s(g19
S'1919 Verdugo Blvd, La Canada Flintridge, CA 91011'
p42
tp43
g4
s(g37
S'3121 Santa Carlotta St, La Crescenta, CA 91020'
p44
tp45
g4
s(g16
g37
tp46
V21
p47
s(g10
S'3121 Santa Carlotta St, La Crescenta, CA 91020'
p48
tp49
V10
p50
s(g16
g19
tp51
V22
p52
s(g29
g32
tp53
V3
p54
s(g37
g20
tp55
V17
p56
s(g32
g37
tp57
g39
s(g16
g29
tp58
V21
p59
s(g10
S'2039 Verdugo Blvd, La Canada Flintridge, CA 91020'
p60
tp61
g15
s(g37
g1
tp62
g54
s(g10
S'889 Americana Way suite 330, Glendale, CA 91210'
p63
tp64
V12
p65
s(g27
g5
tp66
V5
p67
s(g16
g20
tp68
V29
p69
s(g29
S'2039 Verdugo Blvd, La Canada Flintridge, CA 91020'
p70
tp71
g4
s(g32
S'2959 Canada Blvd., Glendale, CA 91208'
p72
tp73
g4
s(g19
g29
tp74
g4
s(g19
g37
tp75
V10
p76
s(g20
S'889 Americana Way suite 330, Glendale, CA 91210'
p77
tp78
g4
s.