(lp0
(dp1
S'name'
p2
S'United Artists Theater'
p3
sS'rendevous'
p4
I00
sS'address'
p5
S'1919 Verdugo Blvd, La Canada Flintridge, CA 91011'
p6
sa(dp7
g2
S'La Crescenta Vons'
p8
sg4
I00
sg5
S'3233 Foothill Blvd., La Crescenta-Montrose, CA 91214'
p9
sa(dp10
g2
S'Muraoka House'
p11
sg4
I00
sg5
S'2959 Canada Blvd., Glendale, CA 91208'
p12
sa(dp13
g2
S'Montrose Vons'
p14
sg4
I00
sg5
S'2039 Verdugo Blvd, La Canada Flintridge, CA 91020'
p15
sa(dp16
g2
S'Vena House'
p17
sg4
I00
sg5
S'3121 Santa Carlotta St, La Crescenta, CA 91020'
p18
sa(dp19
g2
S'Hart House'
p20
sg4
I00
sg5
S'12131 Via Santa Maria, Sylmar, CA 91342'
p21
sa(dp22
g2
S'The Americana'
p23
sg4
I00
sg5
S'889 Americana Way suite 330, Glendale, CA 91210'
p24
sa(dp25
g2
S'The Americana'
p26
sg4
I00
sg5
S'889 Americana Way suite 330, Glendale, CA 91210'
p27
sa(dp28
g2
S'Hart House'
p29
sg4
I00
sg5
S'12131 Via Santa Maria, Sylmar, CA 91342'
p30
sa(dp31
g2
S'Vena House'
p32
sg4
I00
sg5
S'3121 Santa Carlotta St, La Crescenta, CA 91020'
p33
sa(dp34
g2
S'Montrose Vons'
p35
sg4
I00
sg5
S'2039 Verdugo Blvd, La Canada Flintridge, CA 91020'
p36
sa(dp37
g2
S'Muraoka House'
p38
sg4
I00
sg5
S'2959 Canada Blvd., Glendale, CA 91208'
p39
sa(dp40
g2
S'La Crescenta Vons'
p41
sg4
I00
sg5
S'3233 Foothill Blvd., La Crescenta-Montrose, CA 91214'
p42
sa(dp43
g2
S'United Artists Theater'
p44
sg4
I00
sg5
S'1919 Verdugo Blvd, La Canada Flintridge, CA 91011'
p45
sa.