(dp0
(S'3233 Foothill Blvd., La Crescenta-Montrose, CA 91214'
p1
S'889 Americana Way suite 330, Glendale, CA 91210'
p2
tp3
V15
p4
s(S'1919 Verdugo Blvd, La Ca\xc3\xb1ada Flintridge, CA 91011'
p5
S'2959 Canada Blvd., Glendale, CA 91208'
p6
tp7
V5
p8
s(S'3121 Santa Carlotta St, La Crescenta, CA 91020'
p9
g2
tp10
V17
p11
s(g6
S'3233 Foothill Blvd., La Crescenta-Montrose, CA 91214'
p12
tp13
V7
p14
s(S'1919 Verdugo Blvd, La Ca\xc3\xb1ada Flintridge, CA 91011'
p15
S'2039 Verdugo Blvd, La Ca\xc3\xb1ada Flintridge, CA 91020'
p16
tp17
V1
p18
s(g16
S'3121 Santa Carlotta St, La Crescenta, CA 91020'
p19
tp20
V9
p21
s(g16
S'3233 Foothill Blvd., La Crescenta-Montrose, CA 91214'
p22
tp23
V7
p24
s(g19
g22
tp25
V3
p26
s(g16
S'2959 Canada Blvd., Glendale, CA 91208'
p27
tp28
g26
s(g15
g19
tp29
V10
p30
s(S'2039 Verdugo Blvd, La Ca\xc3\xb1ada Flintridge, CA 91020'
p31
g2
tp32
V11
p33
s(S'1919 Verdugo Blvd, La Ca\xc3\xb1ada Flintridge, CA 91011'
p34
g2
tp35
V11
p36
s(S'12131 V\xc3\xada Santa Maria, Sylmar, CA 91342'
p37
g2
tp38
V29
p39
s(S'2959 Canada Blvd., Glendale, CA 91208'
p40
g2
tp41
V14
p42
s(g5
g12
tp43
g14
s(S'12131 V\xc3\xada Santa Maria, Sylmar, CA 91342'
p44
g27
tp45
V23
p46
s(g27
g19
tp47
g21
s(g44
g16
tp48
V21
p49
s(g44
g19
tp50
V21
p51
s(g44
g22
tp52
V18
p53
s(g44
g15
tp54
V22
p55
s.