(lp0
(dp1
S'name'
p2
S'UA Theater'
p3
sS'rendevous'
p4
I00
sS'address'
p5
S'1919 Verdugo Blvd, La Ca\xc3\xb1ada Flintridge, CA 91011'
p6
sa(dp7
g2
S'Vons La Crescenta'
p8
sg4
I00
sg5
S'3233 Foothill Blvd., La Crescenta-Montrose, CA 91214'
p9
sa(dp10
g2
S'Muraoka House'
p11
sg4
I00
sg5
S'2959 Canada Blvd., Glendale, CA 91208'
p12
sa(dp13
S'name'
p14
S'Vons Montrose'
p15
sS'rendevous'
p16
I00
sS'address'
p17
S'2039 Verdugo Blvd, La Ca\xc3\xb1ada Flintridge, CA 91020'
p18
sa(dp19
g14
S'Vena House'
p20
sg16
I00
sg17
S'3121 Santa Carlotta St, La Crescenta, CA 91020'
p21
sa(dp22
g14
S'Hart House'
p23
sg16
I00
sg17
S'12131 V\xc3\xada Santa Maria, Sylmar, CA 91342'
p24
sa(dp25
S'name'
p26
S'The Americana'
p27
sS'rendevous'
p28
I00
sS'address'
p29
S'889 Americana Way suite 330, Glendale, CA 91210'
p30
sa.